; ModuleID = '10/1682.c'
source_filename = "10/1682.c"
target datalayout = "e-m:e-p270:32:32-p271:32:32-p272:64:64-i64:64-f80:128-n8:16:32:64-S128"
target triple = "x86_64-pc-linux-gnu"

@.str = private unnamed_addr constant [3 x i8] c"%d\00", align 1
@k = common dso_local global i32 0, align 4
@i = common dso_local global i32 0, align 4
@rec = common dso_local global [26 x i32] zeroinitializer, align 16
@n = common dso_local global [26 x i32] zeroinitializer, align 16
@j = common dso_local global i32 0, align 4
@sum = common dso_local global i32 0, align 4

; Function Attrs: noinline nounwind uwtable
define dso_local i32 @max(i32 %0, i32 %1) #0 {
  %3 = alloca i32, align 4
  %4 = alloca i32, align 4
  %5 = alloca i32, align 4
  store i32 %0, i32* %4, align 4
  store i32 %1, i32* %5, align 4
  %6 = load i32, i32* %4, align 4
  %7 = load i32, i32* %5, align 4
  %8 = icmp sgt i32 %6, %7
  br i1 %8, label %9, label %11

9:                                                ; preds = %2
  %10 = load i32, i32* %4, align 4
  store i32 %10, i32* %3, align 4
  br label %13

11:                                               ; preds = %2
  %12 = load i32, i32* %5, align 4
  store i32 %12, i32* %3, align 4
  br label %13

13:                                               ; preds = %11, %9
  %14 = load i32, i32* %3, align 4
  ret i32 %14
}

; Function Attrs: noinline nounwind uwtable
define dso_local i32 @main() #0 {
  %1 = alloca i32, align 4
  store i32 0, i32* %1, align 4
  %2 = call i32 (i8*, ...) @__isoc99_scanf(i8* getelementptr inbounds ([3 x i8], [3 x i8]* @.str, i64 0, i64 0), i32* @k)
  store i32 1, i32* @i, align 4
  br label %3

3:                                                ; preds = %12, %0
  %4 = load i32, i32* @i, align 4
  %5 = load i32, i32* @k, align 4
  %6 = icmp sle i32 %4, %5
  br i1 %6, label %7, label %15

7:                                                ; preds = %3
  %8 = load i32, i32* @i, align 4
  %9 = sext i32 %8 to i64
  %10 = getelementptr inbounds [26 x i32], [26 x i32]* @rec, i64 0, i64 %9
  %11 = call i32 (i8*, ...) @__isoc99_scanf(i8* getelementptr inbounds ([3 x i8], [3 x i8]* @.str, i64 0, i64 0), i32* %10)
  br label %12

12:                                               ; preds = %7
  %13 = load i32, i32* @i, align 4
  %14 = add nsw i32 %13, 1
  store i32 %14, i32* @i, align 4
  br label %3

15:                                               ; preds = %3
  store i32 1, i32* @i, align 4
  br label %16

16:                                               ; preds = %24, %15
  %17 = load i32, i32* @i, align 4
  %18 = load i32, i32* @k, align 4
  %19 = icmp sle i32 %17, %18
  br i1 %19, label %20, label %27

20:                                               ; preds = %16
  %21 = load i32, i32* @i, align 4
  %22 = sext i32 %21 to i64
  %23 = getelementptr inbounds [26 x i32], [26 x i32]* @n, i64 0, i64 %22
  store i32 1, i32* %23, align 4
  br label %24

24:                                               ; preds = %20
  %25 = load i32, i32* @i, align 4
  %26 = add nsw i32 %25, 1
  store i32 %26, i32* @i, align 4
  br label %16

27:                                               ; preds = %16
  store i32 2, i32* @i, align 4
  br label %28

28:                                               ; preds = %66, %27
  %29 = load i32, i32* @i, align 4
  %30 = load i32, i32* @k, align 4
  %31 = icmp sle i32 %29, %30
  br i1 %31, label %32, label %69

32:                                               ; preds = %28
  store i32 1, i32* @j, align 4
  br label %33

33:                                               ; preds = %62, %32
  %34 = load i32, i32* @j, align 4
  %35 = load i32, i32* @i, align 4
  %36 = icmp slt i32 %34, %35
  br i1 %36, label %37, label %65

37:                                               ; preds = %33
  %38 = load i32, i32* @i, align 4
  %39 = sext i32 %38 to i64
  %40 = getelementptr inbounds [26 x i32], [26 x i32]* @rec, i64 0, i64 %39
  %41 = load i32, i32* %40, align 4
  %42 = load i32, i32* @j, align 4
  %43 = sext i32 %42 to i64
  %44 = getelementptr inbounds [26 x i32], [26 x i32]* @rec, i64 0, i64 %43
  %45 = load i32, i32* %44, align 4
  %46 = icmp sle i32 %41, %45
  br i1 %46, label %47, label %61

47:                                               ; preds = %37
  %48 = load i32, i32* @i, align 4
  %49 = sext i32 %48 to i64
  %50 = getelementptr inbounds [26 x i32], [26 x i32]* @n, i64 0, i64 %49
  %51 = load i32, i32* %50, align 4
  %52 = load i32, i32* @j, align 4
  %53 = sext i32 %52 to i64
  %54 = getelementptr inbounds [26 x i32], [26 x i32]* @n, i64 0, i64 %53
  %55 = load i32, i32* %54, align 4
  %56 = add nsw i32 %55, 1
  %57 = call i32 @max(i32 %51, i32 %56)
  %58 = load i32, i32* @i, align 4
  %59 = sext i32 %58 to i64
  %60 = getelementptr inbounds [26 x i32], [26 x i32]* @n, i64 0, i64 %59
  store i32 %57, i32* %60, align 4
  br label %61

61:                                               ; preds = %47, %37
  br label %62

62:                                               ; preds = %61
  %63 = load i32, i32* @j, align 4
  %64 = add nsw i32 %63, 1
  store i32 %64, i32* @j, align 4
  br label %33

65:                                               ; preds = %33
  br label %66

66:                                               ; preds = %65
  %67 = load i32, i32* @i, align 4
  %68 = add nsw i32 %67, 1
  store i32 %68, i32* @i, align 4
  br label %28

69:                                               ; preds = %28
  store i32 0, i32* @sum, align 4
  store i32 1, i32* @i, align 4
  br label %70

70:                                               ; preds = %81, %69
  %71 = load i32, i32* @i, align 4
  %72 = load i32, i32* @k, align 4
  %73 = icmp sle i32 %71, %72
  br i1 %73, label %74, label %84

74:                                               ; preds = %70
  %75 = load i32, i32* @sum, align 4
  %76 = load i32, i32* @i, align 4
  %77 = sext i32 %76 to i64
  %78 = getelementptr inbounds [26 x i32], [26 x i32]* @n, i64 0, i64 %77
  %79 = load i32, i32* %78, align 4
  %80 = call i32 @max(i32 %75, i32 %79)
  store i32 %80, i32* @sum, align 4
  br label %81

81:                                               ; preds = %74
  %82 = load i32, i32* @i, align 4
  %83 = add nsw i32 %82, 1
  store i32 %83, i32* @i, align 4
  br label %70

84:                                               ; preds = %70
  %85 = load i32, i32* @sum, align 4
  %86 = call i32 (i8*, ...) @printf(i8* getelementptr inbounds ([3 x i8], [3 x i8]* @.str, i64 0, i64 0), i32 %85)
  %87 = load i32, i32* %1, align 4
  ret i32 %87
}

declare dso_local i32 @__isoc99_scanf(i8*, ...) #1

declare dso_local i32 @printf(i8*, ...) #1


!llvm.module.flags = !{!0}
!llvm.ident = !{!1}

!0 = !{i32 1, !"wchar_size", i32 4}
!1 = !{!"clang version 10.0.0-4ubuntu1 "}
